target datalayout = "e-m:e-p270:32:32-p271:32:32-p272:64:64-i64:64-i128:128-f80:128-n8:16:32:64-S128"
target triple = "x86_64-pc-linux-gnu"

%struct.Agdesc_s = type { i8, [3 x i8] }
%struct.Agiddisc_s = type { ptr, ptr, ptr, ptr, ptr, ptr }
%struct.Agiodisc_s = type { ptr, ptr, ptr }
%struct.Agdisc_s = type { ptr, ptr }
%struct.Agobj_s = type { %struct.Agtag_s, ptr }
%struct.Agtag_s = type { i32, i64 }
%struct.Agraph_s = type { %struct.Agobj_s, %struct.Agdesc_s, %struct.dtlink_s_, %struct.dtlink_s_, ptr, ptr, ptr, ptr, ptr, ptr, ptr, ptr, ptr }
%struct.dtlink_s_ = type { ptr, %union.anon }
%union.anon = type { ptr }
%struct.Agclos_s = type { %struct.Agdisc_s, %struct.Agdstate_s, ptr, [3 x i64], ptr, [3 x ptr], [3 x ptr] }
%struct.Agdstate_s = type { ptr }

@AgIdDisc = external global %struct.Agiddisc_s, align 8
@AgIoDisc = external global %struct.Agiodisc_s, align 8
@stderr = external global ptr, align 8
@.str = private unnamed_addr constant [58 x i8] c"integer overflow when trying to allocate %zu * %zu bytes\0A\00", align 1
@.str.3 = private unnamed_addr constant [49 x i8] c"out of memory when trying to allocate %zu bytes\0A\00", align 1

; Function Attrs: inlinehint nounwind uwtable
define internal ptr @gv_calloc(i64 noundef %0, i64 noundef %1) #2 {
  %3 = alloca i64, align 8
  %4 = alloca i64, align 8
  %5 = alloca ptr, align 8
  store i64 %0, ptr %3, align 8, !tbaa !39
  store i64 %1, ptr %4, align 8, !tbaa !39
  %6 = load i64, ptr %3, align 8, !tbaa !39
  %7 = icmp ugt i64 %6, 0
  br i1 %7, label %8, label %18

8:                                                ; preds = %2
  %9 = load i64, ptr %3, align 8, !tbaa !39
  %10 = udiv i64 -1, %9
  %11 = load i64, ptr %4, align 8, !tbaa !39
  %12 = icmp ult i64 %10, %11
  br i1 %12, label %13, label %18

13:                                               ; preds = %8
  %14 = load ptr, ptr @stderr, align 8, !tbaa !44
  %15 = load i64, ptr %3, align 8, !tbaa !39
  %16 = load i64, ptr %4, align 8, !tbaa !39
  %17 = call i32 (ptr, ptr, ...) @fprintf(ptr noundef %14, ptr noundef @.str, i64 noundef %15, i64 noundef %16) #9
  call void @graphviz_exit(i32 noundef 1) #10
  unreachable

18:                                               ; preds = %8, %2
  call void @llvm.lifetime.start.p0(i64 8, ptr %5) #9
  %19 = load i64, ptr %3, align 8, !tbaa !39
  %20 = load i64, ptr %4, align 8, !tbaa !39
  %21 = call noalias ptr @calloc(i64 noundef %19, i64 noundef %20) #11
  store ptr %21, ptr %5, align 8, !tbaa !46
  %22 = load i64, ptr %3, align 8, !tbaa !39
  %23 = icmp ugt i64 %22, 0
  br i1 %23, label %24, label %36

24:                                               ; preds = %18
  %25 = load i64, ptr %4, align 8, !tbaa !39
  %26 = icmp ugt i64 %25, 0
  br i1 %26, label %27, label %36

27:                                               ; preds = %24
  %28 = load ptr, ptr %5, align 8, !tbaa !46
  %29 = icmp eq ptr %28, null
  br i1 %29, label %30, label %36

30:                                               ; preds = %27
  %31 = load ptr, ptr @stderr, align 8, !tbaa !44
  %32 = load i64, ptr %3, align 8, !tbaa !39
  %33 = load i64, ptr %4, align 8, !tbaa !39
  %34 = mul i64 %32, %33
  %35 = call i32 (ptr, ptr, ...) @fprintf(ptr noundef %31, ptr noundef @.str.3, i64 noundef %34) #9
  call void @graphviz_exit(i32 noundef 1) #10
  unreachable

36:                                               ; preds = %27, %24, %18
  %37 = load ptr, ptr %5, align 8, !tbaa !46
  call void @llvm.lifetime.end.p0(i64 8, ptr %5) #9
  ret ptr %37
}

; Function Attrs: nounwind uwtable
define internal ptr @agclos(ptr noundef %0) #0 {
  %2 = alloca ptr, align 8
  %3 = alloca ptr, align 8
  store ptr %0, ptr %2, align 8, !tbaa !8
  call void @llvm.lifetime.start.p0(i64 8, ptr %3) #9
  %4 = call ptr @gv_calloc(i64 noundef 1, i64 noundef 112)
  store ptr %4, ptr %3, align 8, !tbaa !10
  %5 = load ptr, ptr %2, align 8, !tbaa !8
  %6 = icmp ne ptr %5, null
  br i1 %6, label %7, label %16

7:                                                ; preds = %1
  %8 = load ptr, ptr %2, align 8, !tbaa !8
  %9 = getelementptr inbounds nuw %struct.Agdisc_s, ptr %8, i32 0, i32 0
  %10 = load ptr, ptr %9, align 8, !tbaa !41
  %11 = icmp ne ptr %10, null
  br i1 %11, label %12, label %16

12:                                               ; preds = %7
  %13 = load ptr, ptr %2, align 8, !tbaa !8
  %14 = getelementptr inbounds nuw %struct.Agdisc_s, ptr %13, i32 0, i32 0
  %15 = load ptr, ptr %14, align 8, !tbaa !41
  br label %17

16:                                               ; preds = %7, %1
  br label %17

17:                                               ; preds = %16, %12
  %18 = phi ptr [ %15, %12 ], [ @AgIdDisc, %16 ]
  %19 = load ptr, ptr %3, align 8, !tbaa !10
  %20 = getelementptr inbounds nuw %struct.Agclos_s, ptr %19, i32 0, i32 0
  %21 = getelementptr inbounds nuw %struct.Agdisc_s, ptr %20, i32 0, i32 0
  store ptr %18, ptr %21, align 8, !tbaa !29
  %22 = load ptr, ptr %2, align 8, !tbaa !8
  %23 = icmp ne ptr %22, null
  br i1 %23, label %24, label %33

24:                                               ; preds = %17
  %25 = load ptr, ptr %2, align 8, !tbaa !8
  %26 = getelementptr inbounds nuw %struct.Agdisc_s, ptr %25, i32 0, i32 1
  %27 = load ptr, ptr %26, align 8, !tbaa !42
  %28 = icmp ne ptr %27, null
  br i1 %28, label %29, label %33

29:                                               ; preds = %24
  %30 = load ptr, ptr %2, align 8, !tbaa !8
  %31 = getelementptr inbounds nuw %struct.Agdisc_s, ptr %30, i32 0, i32 1
  %32 = load ptr, ptr %31, align 8, !tbaa !42
  br label %34

33:                                               ; preds = %24, %17
  br label %34

34:                                               ; preds = %33, %29
  %35 = phi ptr [ %32, %29 ], [ @AgIoDisc, %33 ]
  %36 = load ptr, ptr %3, align 8, !tbaa !10
  %37 = getelementptr inbounds nuw %struct.Agclos_s, ptr %36, i32 0, i32 0
  %38 = getelementptr inbounds nuw %struct.Agdisc_s, ptr %37, i32 0, i32 1
  store ptr %35, ptr %38, align 8, !tbaa !43
  %39 = load ptr, ptr %3, align 8, !tbaa !10
  call void @llvm.lifetime.end.p0(i64 8, ptr %3) #9
  ret ptr %39
}

; Function Attrs: nounwind uwtable
define ptr @agopen(ptr noundef %0, i32 %1, ptr noundef %2) #0 {
  %4 = alloca %struct.Agdesc_s, align 4
  %5 = alloca ptr, align 8
  %6 = alloca ptr, align 8
  %7 = alloca ptr, align 8
  %8 = alloca ptr, align 8
  %9 = alloca i64, align 8
  store i32 %1, ptr %4, align 4
  store ptr %0, ptr %5, align 8, !tbaa !3
  store ptr %2, ptr %6, align 8, !tbaa !8
  call void @llvm.lifetime.start.p0(i64 8, ptr %7) #9
  call void @llvm.lifetime.start.p0(i64 8, ptr %8) #9
  call void @llvm.lifetime.start.p0(i64 8, ptr %9) #9
  %10 = load ptr, ptr %6, align 8, !tbaa !8
  %11 = call ptr @agclos(ptr noundef %10)
  store ptr %11, ptr %8, align 8, !tbaa !10
  %12 = call ptr @gv_calloc(i64 noundef 1, i64 noundef 136)
  store ptr %12, ptr %7, align 8, !tbaa !12
  %13 = load ptr, ptr %7, align 8, !tbaa !12
  %14 = getelementptr inbounds nuw %struct.Agobj_s, ptr %13, i32 0, i32 0
  %15 = load i32, ptr %14, align 8
  %16 = and i32 %15, -4
  %17 = or i32 %16, 0
  store i32 %17, ptr %14, align 8
  %18 = load ptr, ptr %8, align 8, !tbaa !10
  %19 = load ptr, ptr %7, align 8, !tbaa !12
  %20 = getelementptr inbounds nuw %struct.Agraph_s, ptr %19, i32 0, i32 12
  store ptr %18, ptr %20, align 8, !tbaa !14
  %21 = load ptr, ptr %7, align 8, !tbaa !12
  %22 = getelementptr inbounds nuw %struct.Agraph_s, ptr %21, i32 0, i32 1
  call void @llvm.memcpy.p0.p0.i64(ptr align 8 %22, ptr align 4 %4, i64 4, i1 false), !tbaa.struct !26
  %23 = load ptr, ptr %7, align 8, !tbaa !12
  %24 = getelementptr inbounds nuw %struct.Agraph_s, ptr %23, i32 0, i32 1
  %25 = load i8, ptr %24, align 8
  %26 = and i8 %25, -9
  %27 = or i8 %26, 8
  store i8 %27, ptr %24, align 8
  %28 = load ptr, ptr %7, align 8, !tbaa !12
  %29 = load ptr, ptr %7, align 8, !tbaa !12
  %30 = getelementptr inbounds nuw %struct.Agraph_s, ptr %29, i32 0, i32 11
  store ptr %28, ptr %30, align 8, !tbaa !28
  %31 = load ptr, ptr %7, align 8, !tbaa !12
  %32 = getelementptr inbounds nuw %struct.Agraph_s, ptr %31, i32 0, i32 12
  %33 = load ptr, ptr %32, align 8, !tbaa !14
  %34 = getelementptr inbounds nuw %struct.Agclos_s, ptr %33, i32 0, i32 0
  %35 = getelementptr inbounds nuw %struct.Agdisc_s, ptr %34, i32 0, i32 0
  %36 = load ptr, ptr %35, align 8, !tbaa !29
  %37 = getelementptr inbounds nuw %struct.Agiddisc_s, ptr %36, i32 0, i32 0
  %38 = load ptr, ptr %37, align 8, !tbaa !36
  %39 = load ptr, ptr %7, align 8, !tbaa !12
  %40 = load ptr, ptr %6, align 8, !tbaa !8
  %41 = call ptr %38(ptr noundef %39, ptr noundef %40)
  %42 = load ptr, ptr %7, align 8, !tbaa !12
  %43 = getelementptr inbounds nuw %struct.Agraph_s, ptr %42, i32 0, i32 12
  %44 = load ptr, ptr %43, align 8, !tbaa !14
  %45 = getelementptr inbounds nuw %struct.Agclos_s, ptr %44, i32 0, i32 1
  %46 = getelementptr inbounds nuw %struct.Agdstate_s, ptr %45, i32 0, i32 0
  store ptr %41, ptr %46, align 8, !tbaa !38
  %47 = load ptr, ptr %7, align 8, !tbaa !12
  %48 = load ptr, ptr %5, align 8, !tbaa !3
  %49 = call i32 @agmapnametoid(ptr noundef %47, i32 noundef 0, ptr noundef %48, ptr noundef %9, i1 noundef zeroext true)
  %50 = icmp ne i32 %49, 0
  br i1 %50, label %51, label %56

51:                                               ; preds = %3
  %52 = load i64, ptr %9, align 8, !tbaa !39
  %53 = load ptr, ptr %7, align 8, !tbaa !12
  %54 = getelementptr inbounds nuw %struct.Agobj_s, ptr %53, i32 0, i32 0
  %55 = getelementptr inbounds nuw %struct.Agtag_s, ptr %54, i32 0, i32 1
  store i64 %52, ptr %55, align 8, !tbaa !40
  br label %56

56:                                               ; preds = %51, %3
  %57 = load ptr, ptr %7, align 8, !tbaa !12
  %58 = call ptr @agopen1(ptr noundef %57)
  store ptr %58, ptr %7, align 8, !tbaa !12
  %59 = load ptr, ptr %7, align 8, !tbaa !12
  %60 = load ptr, ptr %7, align 8, !tbaa !12
  call void @agregister(ptr noundef %59, i32 noundef 0, ptr noundef %60)
  %61 = load ptr, ptr %7, align 8, !tbaa !12
  call void @llvm.lifetime.end.p0(i64 8, ptr %9) #9
  call void @llvm.lifetime.end.p0(i64 8, ptr %8) #9
  call void @llvm.lifetime.end.p0(i64 8, ptr %7) #9
  ret ptr %61
}