; Function Attrs: nounwind uwtable
define noundef ptr @agopen(ptr noundef %0, i32 %1, ptr noundef %2) local_unnamed_addr #0 {
  %4 = alloca i64, align 8
  call void @llvm.lifetime.start.p0(i64 8, ptr nonnull %4) #11
  %5 = tail call noalias dereferenceable_or_null(112) ptr @calloc(i64 noundef 1, i64 noundef 112) #12
  %6 = icmp eq ptr %5, null
  br i1 %6, label %7, label %gv_calloc.exit.i

7:                                                ; preds = %3
  %8 = load ptr, ptr @stderr, align 8, !tbaa !3
  %9 = tail call i32 (ptr, ptr, ...) @fprintf(ptr noundef %8, ptr noundef nonnull @.str.3, i64 noundef 112) #13
  tail call fastcc void @graphviz_exit() #14
  unreachable

gv_calloc.exit.i:                                 ; preds = %3
  %.not.i = icmp eq ptr %2, null
  br i1 %.not.i, label %agclos.exit, label %10

10:                                               ; preds = %gv_calloc.exit.i
  %11 = load ptr, ptr %2, align 8, !tbaa !8
  %.not11.i = icmp eq ptr %11, null
  %spec.select.i = select i1 %.not11.i, ptr @AgIdDisc, ptr %11
  %12 = getelementptr inbounds nuw i8, ptr %2, i64 8
  %13 = load ptr, ptr %12, align 8, !tbaa !12
  %.not12.i = icmp eq ptr %13, null
  %spec.select13.i = select i1 %.not12.i, ptr @AgIoDisc, ptr %13
  br label %agclos.exit

agclos.exit:                                      ; preds = %gv_calloc.exit.i, %10
  %spec.select.sink.i = phi ptr [ %spec.select.i, %10 ], [ @AgIdDisc, %gv_calloc.exit.i ]
  %14 = phi ptr [ %spec.select13.i, %10 ], [ @AgIoDisc, %gv_calloc.exit.i ]
  store ptr %spec.select.sink.i, ptr %5, align 8, !tbaa !13
  %15 = getelementptr inbounds nuw i8, ptr %5, i64 8
  store ptr %14, ptr %15, align 8, !tbaa !17
  %16 = tail call noalias dereferenceable_or_null(136) ptr @calloc(i64 noundef 1, i64 noundef 136) #12
  %17 = icmp eq ptr %16, null
  br i1 %17, label %18, label %gv_calloc.exit

18:                                               ; preds = %agclos.exit
  %19 = load ptr, ptr @stderr, align 8, !tbaa !3
  %20 = tail call i32 (ptr, ptr, ...) @fprintf(ptr noundef %19, ptr noundef nonnull @.str.3, i64 noundef 136) #13
  tail call fastcc void @graphviz_exit() #14
  unreachable

gv_calloc.exit:                                   ; preds = %agclos.exit
  %21 = getelementptr inbounds nuw i8, ptr %16, i64 128
  store ptr %5, ptr %21, align 8, !tbaa !18
  %22 = getelementptr inbounds nuw i8, ptr %16, i64 24
  store i32 %1, ptr %22, align 8
  %23 = trunc i32 %1 to i8
  %24 = or i8 %23, 8
  store i8 %24, ptr %22, align 8
  %25 = getelementptr inbounds nuw i8, ptr %16, i64 120
  store ptr %16, ptr %25, align 8, !tbaa !32
  %26 = load ptr, ptr %spec.select.sink.i, align 8, !tbaa !33
  %27 = tail call ptr %26(ptr noundef nonnull %16, ptr noundef %2) #11
  %28 = load ptr, ptr %21, align 8, !tbaa !18
  %29 = getelementptr inbounds nuw i8, ptr %28, i64 16
  store ptr %27, ptr %29, align 8, !tbaa !35
  %30 = call i32 @agmapnametoid(ptr noundef nonnull %16, i32 noundef 0, ptr noundef %0, ptr noundef nonnull %4, i1 noundef zeroext true) #11
  %.not = icmp eq i32 %30, 0
  br i1 %.not, label %34, label %31

31:                                               ; preds = %gv_calloc.exit
  %32 = load i64, ptr %4, align 8, !tbaa !36
  %33 = getelementptr inbounds nuw i8, ptr %16, i64 8
  store i64 %32, ptr %33, align 8, !tbaa !37
  br label %34

34:                                               ; preds = %31, %gv_calloc.exit
  %35 = call ptr @agopen1(ptr noundef nonnull %16)
  call void @agregister(ptr noundef nonnull %16, i32 noundef 0, ptr noundef nonnull %16) #11
  call void @llvm.lifetime.end.p0(i64 8, ptr nonnull %4) #11
  ret ptr %16
}